target datalayout = "e-m:e-p270:32:32-p271:32:32-p272:64:64-i64:64-i128:128-f80:128-n8:16:32:64-S128"
target triple = "x86_64-unknown-linux-gnu"

%"class.v8::IndirectHandleBase" = type { ptr }
%"class.node::MemoryRetainer" = type { ptr }
%"class.v8::OutputStream" = type { ptr }
%"class.std::unique_ptr.325" = type { %"struct.std::__uniq_ptr_data.326" }
%"struct.std::__uniq_ptr_data.326" = type { %"class.std::__uniq_ptr_impl.327" }
%"class.std::__uniq_ptr_impl.327" = type { %"class.std::tuple.328" }
%"class.std::tuple.328" = type { %"struct.std::_Tuple_impl.329" }
%"struct.std::_Tuple_impl.329" = type { %"struct.std::_Head_base.332" }
%"struct.std::_Head_base.332" = type { ptr }
%"class.node::BaseObject" = type { %"class.node::MemoryRetainer", %"class.v8::Global.337", ptr, ptr }
%"class.v8::Global.337" = type { %"class.v8::PersistentBase.338" }
%"class.v8::PersistentBase.338" = type { %"class.v8::IndirectHandleBase" }
%"class.node::heap::(anonymous namespace)::HeapSnapshotStream" = type { %"class.node::AsyncWrap", %"class.node::StreamBase", %"class.v8::OutputStream", %"class.std::unique_ptr.325" }
%"class.node::AsyncWrap" = type { %"class.node::BaseObject", i32, i8, double, double }
%"class.node::StreamBase" = type { %"class.node::StreamResource", ptr, %"class.node::EmitToJSStreamListener" }
%"class.node::StreamResource" = type { ptr, ptr, i64, i64 }
%"class.node::EmitToJSStreamListener" = type { %"class.node::ReportWritesToJSStreamListener" }
%"class.node::ReportWritesToJSStreamListener" = type { %"class.node::StreamListener" }
%"class.node::StreamListener" = type { ptr, ptr, ptr }

@_ZTVN4node10StreamBaseE = external unnamed_addr constant { [20 x ptr] }, align 8

; Function Attrs: mustprogress nounwind uwtable
define linkonce_odr dso_local noundef nonnull align 1 dereferenceable(1) ptr @_ZNSt10_Head_baseILm1EN4node15FunctionDeleterIKN2v812HeapSnapshotEXadL_ZNS0_4heap18DeleteHeapSnapshotEPS4_EEEELb1EE7_M_headERS8_(ptr noundef nonnull align 1 dereferenceable(1) %__b) #4 comdat align 2 {
entry:
  %__b.addr = alloca ptr, align 8
  store ptr %__b, ptr %__b.addr, align 8
  %0 = load ptr, ptr %__b.addr, align 8
  ret ptr %0
}

; Function Attrs: mustprogress nounwind uwtable
define linkonce_odr dso_local noundef nonnull align 1 dereferenceable(1) ptr @_ZNSt11_Tuple_implILm1EJN4node15FunctionDeleterIKN2v812HeapSnapshotEXadL_ZNS0_4heap18DeleteHeapSnapshotEPS4_EEEEEE7_M_headERS8_(ptr noundef nonnull align 1 dereferenceable(1) %__t) #4 comdat align 2 {
entry:
  %__t.addr = alloca ptr, align 8
  store ptr %__t, ptr %__t.addr, align 8
  %0 = load ptr, ptr %__t.addr, align 8
  %call = call noundef nonnull align 1 dereferenceable(1) ptr @_ZNSt10_Head_baseILm1EN4node15FunctionDeleterIKN2v812HeapSnapshotEXadL_ZNS0_4heap18DeleteHeapSnapshotEPS4_EEEELb1EE7_M_headERS8_(ptr noundef nonnull align 1 dereferenceable(1) %0) #3
  ret ptr %call
}

; Function Attrs: mustprogress nounwind uwtable
define linkonce_odr dso_local noundef nonnull align 8 dereferenceable(8) ptr @_ZNSt10_Head_baseILm0EPKN2v812HeapSnapshotELb0EE7_M_headERS4_(ptr noundef nonnull align 8 dereferenceable(8) %__b) #4 comdat align 2 {
entry:
  %__b.addr = alloca ptr, align 8
  store ptr %__b, ptr %__b.addr, align 8
  %0 = load ptr, ptr %__b.addr, align 8
  %_M_head_impl = getelementptr inbounds %"struct.std::_Head_base.332", ptr %0, i32 0, i32 0
  ret ptr %_M_head_impl
}

; Function Attrs: mustprogress nounwind uwtable
define linkonce_odr dso_local noundef nonnull align 1 dereferenceable(1) ptr @_ZSt12__get_helperILm1EN4node15FunctionDeleterIKN2v812HeapSnapshotEXadL_ZNS0_4heap18DeleteHeapSnapshotEPS4_EEEEJEERT0_RSt11_Tuple_implIXT_EJS8_DpT1_EE(ptr noundef nonnull align 1 dereferenceable(1) %__t) #4 comdat {
entry:
  %__t.addr = alloca ptr, align 8
  store ptr %__t, ptr %__t.addr, align 8
  %0 = load ptr, ptr %__t.addr, align 8
  %call = call noundef nonnull align 1 dereferenceable(1) ptr @_ZNSt11_Tuple_implILm1EJN4node15FunctionDeleterIKN2v812HeapSnapshotEXadL_ZNS0_4heap18DeleteHeapSnapshotEPS4_EEEEEE7_M_headERS8_(ptr noundef nonnull align 1 dereferenceable(1) %0) #3
  ret ptr %call
}

; Function Attrs: mustprogress nounwind uwtable
define linkonce_odr dso_local noundef nonnull align 8 dereferenceable(8) ptr @_ZNSt11_Tuple_implILm0EJPKN2v812HeapSnapshotEN4node15FunctionDeleterIS2_XadL_ZNS4_4heap18DeleteHeapSnapshotES3_EEEEEE7_M_headERS8_(ptr noundef nonnull align 8 dereferenceable(8) %__t) #4 comdat align 2 {
entry:
  %__t.addr = alloca ptr, align 8
  store ptr %__t, ptr %__t.addr, align 8
  %0 = load ptr, ptr %__t.addr, align 8
  %call = call noundef nonnull align 8 dereferenceable(8) ptr @_ZNSt10_Head_baseILm0EPKN2v812HeapSnapshotELb0EE7_M_headERS4_(ptr noundef nonnull align 8 dereferenceable(8) %0) #3
  ret ptr %call
}

; Function Attrs: mustprogress nounwind uwtable
define linkonce_odr dso_local noundef nonnull align 1 dereferenceable(1) ptr @_ZSt3getILm1EJPKN2v812HeapSnapshotEN4node15FunctionDeleterIS2_XadL_ZNS4_4heap18DeleteHeapSnapshotES3_EEEEEERNSt13tuple_elementIXT_ESt5tupleIJDpT0_EEE4typeERSC_(ptr noundef nonnull align 8 dereferenceable(8) %__t) #4 comdat {
entry:
  %__t.addr = alloca ptr, align 8
  store ptr %__t, ptr %__t.addr, align 8
  %0 = load ptr, ptr %__t.addr, align 8
  %call = call noundef nonnull align 1 dereferenceable(1) ptr @_ZSt12__get_helperILm1EN4node15FunctionDeleterIKN2v812HeapSnapshotEXadL_ZNS0_4heap18DeleteHeapSnapshotEPS4_EEEEJEERT0_RSt11_Tuple_implIXT_EJS8_DpT1_EE(ptr noundef nonnull align 1 dereferenceable(1) %0) #3
  ret ptr %call
}

; Function Attrs: mustprogress nounwind uwtable
define linkonce_odr dso_local noundef nonnull align 8 dereferenceable(8) ptr @_ZSt12__get_helperILm0EPKN2v812HeapSnapshotEJN4node15FunctionDeleterIS2_XadL_ZNS4_4heap18DeleteHeapSnapshotES3_EEEEEERT0_RSt11_Tuple_implIXT_EJS8_DpT1_EE(ptr noundef nonnull align 8 dereferenceable(8) %__t) #4 comdat {
entry:
  %__t.addr = alloca ptr, align 8
  store ptr %__t, ptr %__t.addr, align 8
  %0 = load ptr, ptr %__t.addr, align 8
  %call = call noundef nonnull align 8 dereferenceable(8) ptr @_ZNSt11_Tuple_implILm0EJPKN2v812HeapSnapshotEN4node15FunctionDeleterIS2_XadL_ZNS4_4heap18DeleteHeapSnapshotES3_EEEEEE7_M_headERS8_(ptr noundef nonnull align 8 dereferenceable(8) %0) #3
  ret ptr %call
}

; Function Attrs: mustprogress nounwind uwtable
define linkonce_odr dso_local void @_ZN4node30ReportWritesToJSStreamListenerD2Ev(ptr noundef nonnull align 8 dereferenceable(24) %this) unnamed_addr #4 comdat align 2 {
entry:
  %this.addr = alloca ptr, align 8
  store ptr %this, ptr %this.addr, align 8
  %this1 = load ptr, ptr %this.addr, align 8
  call void @_ZN4node14StreamListenerD2Ev(ptr noundef nonnull align 8 dereferenceable(24) %this1) #3
  ret void
}

; Function Attrs: mustprogress nounwind uwtable
define dso_local void @_ZN4node4heap18DeleteHeapSnapshotEPKN2v812HeapSnapshotE(ptr noundef %snapshot) #4 {
entry:
  %snapshot.addr = alloca ptr, align 8
  store ptr %snapshot, ptr %snapshot.addr, align 8
  %0 = load ptr, ptr %snapshot.addr, align 8
  call void @_ZN2v812HeapSnapshot6DeleteEv(ptr noundef nonnull align 1 dereferenceable(1) %0)
  ret void
}

; Function Attrs: mustprogress nounwind uwtable
define linkonce_odr dso_local noundef nonnull align 1 dereferenceable(1) ptr @_ZNSt15__uniq_ptr_implIKN2v812HeapSnapshotEN4node15FunctionDeleterIS2_XadL_ZNS3_4heap18DeleteHeapSnapshotEPS2_EEEEE10_M_deleterEv(ptr noundef nonnull align 8 dereferenceable(8) %this) #4 comdat align 2 {
entry:
  %this.addr = alloca ptr, align 8
  store ptr %this, ptr %this.addr, align 8
  %this1 = load ptr, ptr %this.addr, align 8
  %_M_t = getelementptr inbounds %"class.std::__uniq_ptr_impl.327", ptr %this1, i32 0, i32 0
  %call = call noundef nonnull align 1 dereferenceable(1) ptr @_ZSt3getILm1EJPKN2v812HeapSnapshotEN4node15FunctionDeleterIS2_XadL_ZNS4_4heap18DeleteHeapSnapshotES3_EEEEEERNSt13tuple_elementIXT_ESt5tupleIJDpT0_EEE4typeERSC_(ptr noundef nonnull align 8 dereferenceable(8) %_M_t) #3
  ret ptr %call
}

; Function Attrs: mustprogress nounwind uwtable
define linkonce_odr dso_local noundef nonnull align 8 dereferenceable(8) ptr @_ZSt3getILm0EJPKN2v812HeapSnapshotEN4node15FunctionDeleterIS2_XadL_ZNS4_4heap18DeleteHeapSnapshotES3_EEEEEERNSt13tuple_elementIXT_ESt5tupleIJDpT0_EEE4typeERSC_(ptr noundef nonnull align 8 dereferenceable(8) %__t) #4 comdat {
entry:
  %__t.addr = alloca ptr, align 8
  store ptr %__t, ptr %__t.addr, align 8
  %0 = load ptr, ptr %__t.addr, align 8
  %call = call noundef nonnull align 8 dereferenceable(8) ptr @_ZSt12__get_helperILm0EPKN2v812HeapSnapshotEJN4node15FunctionDeleterIS2_XadL_ZNS4_4heap18DeleteHeapSnapshotES3_EEEEEERT0_RSt11_Tuple_implIXT_EJS8_DpT1_EE(ptr noundef nonnull align 8 dereferenceable(8) %0) #3
  ret ptr %call
}

; Function Attrs: mustprogress nounwind uwtable
define linkonce_odr dso_local void @_ZN4node22EmitToJSStreamListenerD2Ev(ptr noundef nonnull align 8 dereferenceable(24) %this) unnamed_addr #4 comdat align 2 {
entry:
  %this.addr = alloca ptr, align 8
  store ptr %this, ptr %this.addr, align 8
  %this1 = load ptr, ptr %this.addr, align 8
  call void @_ZN4node30ReportWritesToJSStreamListenerD2Ev(ptr noundef nonnull align 8 dereferenceable(24) %this1) #3
  ret void
}

; Function Attrs: mustprogress nounwind uwtable
define linkonce_odr dso_local void @_ZNK4node15FunctionDeleterIKN2v812HeapSnapshotEXadL_ZNS_4heap18DeleteHeapSnapshotEPS3_EEEclES5_(ptr noundef nonnull align 1 dereferenceable(1) %this, ptr noundef %pointer) #4 comdat align 2 {
entry:
  %this.addr = alloca ptr, align 8
  %pointer.addr = alloca ptr, align 8
  store ptr %this, ptr %this.addr, align 8
  store ptr %pointer, ptr %pointer.addr, align 8
  %0 = load ptr, ptr %pointer.addr, align 8
  call void @_ZN4node4heap18DeleteHeapSnapshotEPKN2v812HeapSnapshotE(ptr noundef %0)
  ret void
}

; Function Attrs: mustprogress nounwind uwtable
define linkonce_odr dso_local noundef nonnull align 1 dereferenceable(1) ptr @_ZNSt10unique_ptrIKN2v812HeapSnapshotEN4node15FunctionDeleterIS2_XadL_ZNS3_4heap18DeleteHeapSnapshotEPS2_EEEEE11get_deleterEv(ptr noundef nonnull align 8 dereferenceable(8) %this) #4 comdat align 2 {
entry:
  %this.addr = alloca ptr, align 8
  store ptr %this, ptr %this.addr, align 8
  %this1 = load ptr, ptr %this.addr, align 8
  %_M_t = getelementptr inbounds %"class.std::unique_ptr.325", ptr %this1, i32 0, i32 0
  %call = call noundef nonnull align 1 dereferenceable(1) ptr @_ZNSt15__uniq_ptr_implIKN2v812HeapSnapshotEN4node15FunctionDeleterIS2_XadL_ZNS3_4heap18DeleteHeapSnapshotEPS2_EEEEE10_M_deleterEv(ptr noundef nonnull align 8 dereferenceable(8) %_M_t) #3
  ret ptr %call
}

; Function Attrs: mustprogress nounwind uwtable
define linkonce_odr dso_local noundef nonnull align 8 dereferenceable(8) ptr @_ZNSt15__uniq_ptr_implIKN2v812HeapSnapshotEN4node15FunctionDeleterIS2_XadL_ZNS3_4heap18DeleteHeapSnapshotEPS2_EEEEE6_M_ptrEv(ptr noundef nonnull align 8 dereferenceable(8) %this) #4 comdat align 2 {
entry:
  %this.addr = alloca ptr, align 8
  store ptr %this, ptr %this.addr, align 8
  %this1 = load ptr, ptr %this.addr, align 8
  %_M_t = getelementptr inbounds %"class.std::__uniq_ptr_impl.327", ptr %this1, i32 0, i32 0
  %call = call noundef nonnull align 8 dereferenceable(8) ptr @_ZSt3getILm0EJPKN2v812HeapSnapshotEN4node15FunctionDeleterIS2_XadL_ZNS4_4heap18DeleteHeapSnapshotES3_EEEEEERNSt13tuple_elementIXT_ESt5tupleIJDpT0_EEE4typeERSC_(ptr noundef nonnull align 8 dereferenceable(8) %_M_t) #3
  ret ptr %call
}

; Function Attrs: mustprogress nounwind uwtable
define linkonce_odr dso_local void @_ZN4node10StreamBaseD2Ev(ptr noundef nonnull align 8 dereferenceable(64) %this) unnamed_addr #4 comdat align 2 {
entry:
  %this.addr = alloca ptr, align 8
  store ptr %this, ptr %this.addr, align 8
  %this1 = load ptr, ptr %this.addr, align 8
  store ptr getelementptr inbounds ({ [20 x ptr] }, ptr @_ZTVN4node10StreamBaseE, i32 0, i32 0, i32 2), ptr %this1, align 8
  %default_listener_ = getelementptr inbounds %"class.node::StreamBase", ptr %this1, i32 0, i32 2
  call void @_ZN4node22EmitToJSStreamListenerD2Ev(ptr noundef nonnull align 8 dereferenceable(24) %default_listener_) #3
  call void @_ZN4node14StreamResourceD2Ev(ptr noundef nonnull align 8 dereferenceable(32) %this1) #3
  ret void
}

; Function Attrs: mustprogress nounwind uwtable
define linkonce_odr dso_local void @_ZN2v812OutputStreamD2Ev(ptr noundef nonnull align 8 dereferenceable(8) %this) unnamed_addr #4 comdat align 2 {
entry:
  %this.addr = alloca ptr, align 8
  store ptr %this, ptr %this.addr, align 8
  ret void
}

; Function Attrs: mustprogress nounwind uwtable
define linkonce_odr dso_local void @_ZNSt10unique_ptrIKN2v812HeapSnapshotEN4node15FunctionDeleterIS2_XadL_ZNS3_4heap18DeleteHeapSnapshotEPS2_EEEEED2Ev(ptr noundef nonnull align 8 dereferenceable(8) %this) unnamed_addr #4 comdat align 2 {
entry:
  %this.addr = alloca ptr, align 8
  %__ptr = alloca ptr, align 8
  store ptr %this, ptr %this.addr, align 8
  %this1 = load ptr, ptr %this.addr, align 8
  %_M_t = getelementptr inbounds %"class.std::unique_ptr.325", ptr %this1, i32 0, i32 0
  %call = call noundef nonnull align 8 dereferenceable(8) ptr @_ZNSt15__uniq_ptr_implIKN2v812HeapSnapshotEN4node15FunctionDeleterIS2_XadL_ZNS3_4heap18DeleteHeapSnapshotEPS2_EEEEE6_M_ptrEv(ptr noundef nonnull align 8 dereferenceable(8) %_M_t) #3
  store ptr %call, ptr %__ptr, align 8
  %0 = load ptr, ptr %__ptr, align 8
  %1 = load ptr, ptr %0, align 8
  %cmp = icmp ne ptr %1, null
  br i1 %cmp, label %if.then, label %if.end

if.then:                                          ; preds = %entry
  %call2 = call noundef nonnull align 1 dereferenceable(1) ptr @_ZNSt10unique_ptrIKN2v812HeapSnapshotEN4node15FunctionDeleterIS2_XadL_ZNS3_4heap18DeleteHeapSnapshotEPS2_EEEEE11get_deleterEv(ptr noundef nonnull align 8 dereferenceable(8) %this1) #3
  %2 = load ptr, ptr %__ptr, align 8
  %3 = load ptr, ptr %2, align 8
  call void @_ZNK4node15FunctionDeleterIKN2v812HeapSnapshotEXadL_ZNS_4heap18DeleteHeapSnapshotEPS3_EEEclES5_(ptr noundef nonnull align 1 dereferenceable(1) %call2, ptr noundef %3)
  br label %if.end

if.end:                                           ; preds = %if.then, %entry
  %4 = load ptr, ptr %__ptr, align 8
  store ptr null, ptr %4, align 8
  ret void
}

; Function Attrs: mustprogress nounwind uwtable
define internal void @_ZN4node4heap12_GLOBAL__N_118HeapSnapshotStreamD2Ev(ptr noundef nonnull align 8 dereferenceable(136) %this) unnamed_addr #4 align 2 {
entry:
  %this.addr = alloca ptr, align 8
  store ptr %this, ptr %this.addr, align 8
  %this1 = load ptr, ptr %this.addr, align 8
  store ptr getelementptr inbounds ({ [30 x ptr], [20 x ptr], [8 x ptr] }, ptr @_ZTVN4node4heap12_GLOBAL__N_118HeapSnapshotStreamE, i32 0, i32 0, i32 2), ptr %this1, align 8
  %add.ptr = getelementptr inbounds i8, ptr %this1, i64 56
  store ptr getelementptr inbounds ({ [30 x ptr], [20 x ptr], [8 x ptr] }, ptr @_ZTVN4node4heap12_GLOBAL__N_118HeapSnapshotStreamE, i32 0, i32 1, i32 2), ptr %add.ptr, align 8
  %add.ptr2 = getelementptr inbounds i8, ptr %this1, i64 120
  store ptr getelementptr inbounds ({ [30 x ptr], [20 x ptr], [8 x ptr] }, ptr @_ZTVN4node4heap12_GLOBAL__N_118HeapSnapshotStreamE, i32 0, i32 2, i32 2), ptr %add.ptr2, align 8
  %snapshot_ = getelementptr inbounds %"class.node::heap::(anonymous namespace)::HeapSnapshotStream", ptr %this1, i32 0, i32 3
  call void @_ZNSt10unique_ptrIKN2v812HeapSnapshotEN4node15FunctionDeleterIS2_XadL_ZNS3_4heap18DeleteHeapSnapshotEPS2_EEEEED2Ev(ptr noundef nonnull align 8 dereferenceable(8) %snapshot_) #3
  %0 = getelementptr inbounds i8, ptr %this1, i64 120
  call void @_ZN2v812OutputStreamD2Ev(ptr noundef nonnull align 8 dereferenceable(8) %0) #3
  %1 = getelementptr inbounds i8, ptr %this1, i64 56
  call void @_ZN4node10StreamBaseD2Ev(ptr noundef nonnull align 8 dereferenceable(64) %1) #3
  call void @_ZN4node9AsyncWrapD2Ev(ptr noundef nonnull align 8 dereferenceable(56) %this1) #3
  ret void
}

; Function Attrs: mustprogress nounwind uwtable
define internal void @_ZN4node4heap12_GLOBAL__N_118HeapSnapshotStreamD0Ev(ptr noundef nonnull align 8 dereferenceable(136) %this) unnamed_addr #4 align 2 {
entry:
  %this.addr = alloca ptr, align 8
  store ptr %this, ptr %this.addr, align 8
  %this1 = load ptr, ptr %this.addr, align 8
  call void @_ZN4node4heap12_GLOBAL__N_118HeapSnapshotStreamD2Ev(ptr noundef nonnull align 8 dereferenceable(136) %this1) #3
  call void @_ZdlPv(ptr noundef %this1) #17
  ret void
}

; Function Attrs: nounwind uwtable
define internal void @_ZThn120_N4node4heap12_GLOBAL__N_118HeapSnapshotStreamD0Ev(ptr noundef %this) unnamed_addr #0 align 2 {
entry:
  %this.addr = alloca ptr, align 8
  store ptr %this, ptr %this.addr, align 8
  %this1 = load ptr, ptr %this.addr, align 8
  %0 = getelementptr inbounds i8, ptr %this1, i64 -120
  tail call void @_ZN4node4heap12_GLOBAL__N_118HeapSnapshotStreamD0Ev(ptr noundef nonnull align 8 dereferenceable(136) %0) #3
  ret void
}